; Function Attrs: mustprogress uwtable
define hidden void @_ZN12seq_rewriter9mk_lengthEP4expr(ptr dead_on_unwind noalias nonnull writable sret(%class.obj_ref) align 8 initializes((0, 16)) %0, ptr noundef nonnull align 8 dereferenceable(497) %1, ptr noundef %2) local_unnamed_addr #3 align 2 personality ptr @__gxx_personality_v0 {
  %4 = alloca ptr, align 8
  %5 = load ptr, ptr %1, align 8, !tbaa !85
  store ptr null, ptr %0, align 8, !tbaa !11
  %6 = getelementptr inbounds nuw i8, ptr %0, i64 8
  store ptr %5, ptr %6, align 8, !tbaa !12
  %7 = invoke noundef i32 @_ZN12seq_rewriter13mk_seq_lengthEP4exprR7obj_refIS0_11ast_managerE(ptr noundef nonnull align 8 dereferenceable(497) %1, ptr noundef %2, ptr noundef nonnull align 8 dereferenceable(16) %0)
          to label %8 unwind label %29

8:                                                ; preds = %3
  %9 = icmp eq i32 %7, 5
  br i1 %9, label %10, label %31

10:                                               ; preds = %8
  call void @llvm.lifetime.start.p0(i64 8, ptr nonnull %4)
  store ptr %2, ptr %4, align 8, !tbaa !3
  %11 = getelementptr inbounds nuw i8, ptr %1, i64 40
  %12 = load ptr, ptr %11, align 8, !tbaa !335
  %13 = getelementptr inbounds nuw i8, ptr %1, i64 48
  %14 = load i32, ptr %13, align 8, !tbaa !86
  %15 = invoke noundef ptr @_ZN11ast_manager6mk_appEiijPKP4expr(ptr noundef nonnull align 8 dereferenceable(976) %12, i32 noundef %14, i32 noundef 12, i32 noundef 1, ptr noundef nonnull %4)
          to label %16 unwind label %29

16:                                               ; preds = %10
  call void @llvm.lifetime.end.p0(i64 8, ptr nonnull %4)
  %.not.i = icmp eq ptr %15, null
  br i1 %.not.i, label %20, label %_ZN11ast_manager7inc_refEP3ast.exit.i

_ZN11ast_manager7inc_refEP3ast.exit.i:            ; preds = %16
  %17 = getelementptr inbounds nuw i8, ptr %15, i64 8
  %18 = load i32, ptr %17, align 4, !tbaa !99
  %19 = add i32 %18, 1
  store i32 %19, ptr %17, align 4, !tbaa !99
  br label %20

20:                                               ; preds = %_ZN11ast_manager7inc_refEP3ast.exit.i, %16
  %21 = load ptr, ptr %0, align 8, !tbaa !11
  %.not.i4.i = icmp eq ptr %21, null
  br i1 %.not.i4.i, label %_ZN7obj_refI4expr11ast_managerEaSEPS0_.exit, label %22

22:                                               ; preds = %20
  %23 = load ptr, ptr %6, align 8, !tbaa !8
  %24 = getelementptr inbounds nuw i8, ptr %21, i64 8
  %25 = load i32, ptr %24, align 4, !tbaa !99
  %26 = add i32 %25, -1
  store i32 %26, ptr %24, align 4, !tbaa !99
  %27 = icmp eq i32 %26, 0
  br i1 %27, label %28, label %_ZN7obj_refI4expr11ast_managerEaSEPS0_.exit

28:                                               ; preds = %22
  invoke void @_ZN11ast_manager11delete_nodeEP3ast(ptr noundef nonnull align 8 dereferenceable(976) %23, ptr noundef nonnull %21)
          to label %_ZN7obj_refI4expr11ast_managerEaSEPS0_.exit unwind label %29

_ZN7obj_refI4expr11ast_managerEaSEPS0_.exit:      ; preds = %28, %20, %22
  store ptr %15, ptr %0, align 8, !tbaa !11
  br label %31

29:                                               ; preds = %28, %10, %3
  %30 = landingpad { ptr, i32 }
          cleanup
  call void @_ZN7obj_refI4expr11ast_managerED2Ev(ptr noundef nonnull align 8 dereferenceable(16) %0) #28
  resume { ptr, i32 } %30

31:                                               ; preds = %_ZN7obj_refI4expr11ast_managerEaSEPS0_.exit, %8
  ret void
}